; Function Attrs: mustprogress uwtable
define dso_local void @_ZNK5vcpkg10VcpkgPaths9build_dirENS_10StringViewE(ptr dead_on_unwind noalias writable sret(%"struct.vcpkg::Path") align 8 %0, ptr noundef nonnull readonly align 8 captures(none) dereferenceable(440) %1, ptr %2, i64 %3) local_unnamed_addr #0 align 2 personality ptr @__gxx_personality_v0 {
  %5 = alloca %"struct.vcpkg::StringView", align 8
  %6 = alloca %"struct.vcpkg::StringView", align 8
  %7 = alloca %"class.std::__cxx11::basic_string", align 8
  store ptr %2, ptr %5, align 8
  %8 = getelementptr inbounds nuw i8, ptr %5, i64 8
  store i64 %3, ptr %8, align 8
  %9 = tail call noundef nonnull align 8 dereferenceable(32) ptr @_ZNK5vcpkg10VcpkgPaths10buildtreesEv(ptr noundef nonnull align 8 dereferenceable(440) %1)
  call void @llvm.lifetime.start.p0(i64 32, ptr nonnull %7) #28
  call void @_ZNK5vcpkg10StringView9to_stringB5cxx11Ev(ptr dead_on_unwind nonnull writable sret(%"class.std::__cxx11::basic_string") align 8 %7, ptr noundef nonnull align 8 dereferenceable(16) %5)
  call void @_ZN5vcpkg10StringViewC1ERKNSt7__cxx1112basic_stringIcSt11char_traitsIcESaIcEEE(ptr noundef nonnull align 8 dereferenceable(16) %6, ptr noundef nonnull align 8 dereferenceable(32) %7) #28
  %10 = load ptr, ptr %6, align 8
  %11 = getelementptr inbounds nuw i8, ptr %6, i64 8
  %12 = load i64, ptr %11, align 8
  invoke void @_ZNKR5vcpkg4PathdvENS_10StringViewE(ptr dead_on_unwind writable sret(%"struct.vcpkg::Path") align 8 %0, ptr noundef nonnull align 8 dereferenceable(32) %9, ptr %10, i64 %12)
          to label %13 unwind label %22

13:                                               ; preds = %4
  %14 = load ptr, ptr %7, align 8, !tbaa !7
  %15 = getelementptr inbounds nuw i8, ptr %7, i64 16
  %16 = icmp eq ptr %14, %15
  br i1 %16, label %_ZNKSt7__cxx1112basic_stringIcSt11char_traitsIcESaIcEE11_M_is_localEv.exit.thread.i.i, label %_ZNKSt7__cxx1112basic_stringIcSt11char_traitsIcESaIcEE11_M_is_localEv.exit.i.i

_ZNKSt7__cxx1112basic_stringIcSt11char_traitsIcESaIcEE11_M_is_localEv.exit.thread.i.i: ; preds = %13
  %17 = getelementptr inbounds nuw i8, ptr %7, i64 8
  %18 = load i64, ptr %17, align 8, !tbaa !15
  %19 = icmp ult i64 %18, 16
  call void @llvm.assume(i1 %19)
  br label %_ZNSt7__cxx1112basic_stringIcSt11char_traitsIcESaIcEED2Ev.exit

_ZNKSt7__cxx1112basic_stringIcSt11char_traitsIcESaIcEE11_M_is_localEv.exit.i.i: ; preds = %13
  %20 = load i64, ptr %15, align 8, !tbaa !16
  %21 = add i64 %20, 1
  call void @_ZdlPvm(ptr noundef %14, i64 noundef %21) #29
  br label %_ZNSt7__cxx1112basic_stringIcSt11char_traitsIcESaIcEED2Ev.exit

_ZNSt7__cxx1112basic_stringIcSt11char_traitsIcESaIcEED2Ev.exit: ; preds = %_ZNKSt7__cxx1112basic_stringIcSt11char_traitsIcESaIcEE11_M_is_localEv.exit.thread.i.i, %_ZNKSt7__cxx1112basic_stringIcSt11char_traitsIcESaIcEE11_M_is_localEv.exit.i.i
  call void @llvm.lifetime.end.p0(i64 32, ptr nonnull %7) #28
  ret void

22:                                               ; preds = %4
  %23 = landingpad { ptr, i32 }
          cleanup
  %24 = load ptr, ptr %7, align 8, !tbaa !7
  %25 = getelementptr inbounds nuw i8, ptr %7, i64 16
  %26 = icmp eq ptr %24, %25
  br i1 %26, label %_ZNKSt7__cxx1112basic_stringIcSt11char_traitsIcESaIcEE11_M_is_localEv.exit.thread.i.i3, label %_ZNKSt7__cxx1112basic_stringIcSt11char_traitsIcESaIcEE11_M_is_localEv.exit.i.i2

_ZNKSt7__cxx1112basic_stringIcSt11char_traitsIcESaIcEE11_M_is_localEv.exit.thread.i.i3: ; preds = %22
  %27 = getelementptr inbounds nuw i8, ptr %7, i64 8
  %28 = load i64, ptr %27, align 8, !tbaa !15
  %29 = icmp ult i64 %28, 16
  call void @llvm.assume(i1 %29)
  br label %_ZNSt7__cxx1112basic_stringIcSt11char_traitsIcESaIcEED2Ev.exit4

_ZNKSt7__cxx1112basic_stringIcSt11char_traitsIcESaIcEE11_M_is_localEv.exit.i.i2: ; preds = %22
  %30 = load i64, ptr %25, align 8, !tbaa !16
  %31 = add i64 %30, 1
  call void @_ZdlPvm(ptr noundef %24, i64 noundef %31) #29
  br label %_ZNSt7__cxx1112basic_stringIcSt11char_traitsIcESaIcEED2Ev.exit4

_ZNSt7__cxx1112basic_stringIcSt11char_traitsIcESaIcEED2Ev.exit4: ; preds = %_ZNKSt7__cxx1112basic_stringIcSt11char_traitsIcESaIcEE11_M_is_localEv.exit.thread.i.i3, %_ZNKSt7__cxx1112basic_stringIcSt11char_traitsIcESaIcEE11_M_is_localEv.exit.i.i2
  call void @llvm.lifetime.end.p0(i64 32, ptr nonnull %7) #28
  resume { ptr, i32 } %23
}